; Function Attrs: mustprogress nounwind uwtable
define internal fastcc void @_ZN9grpc_core13RefCountedPtrINS_12_GLOBAL__N_119XdsClusterManagerLb12ClusterChildEED2Ev(ptr %.0.val) unnamed_addr #16 align 2 personality ptr @__gxx_personality_v0 {
  %.not = icmp eq ptr %.0.val, null
  br i1 %.not, label %_ZN9grpc_core20InternallyRefCountedINS_12_GLOBAL__N_119XdsClusterManagerLb12ClusterChildENS_11UnrefDeleteEE5UnrefEv.exit, label %1

1:                                                ; preds = %0
  %2 = getelementptr inbounds nuw i8, ptr %.0.val, i64 8
  %3 = atomicrmw sub ptr %2, i64 1 acq_rel, align 8
  %4 = icmp eq i64 %3, 1
  br i1 %4, label %5, label %_ZN9grpc_core20InternallyRefCountedINS_12_GLOBAL__N_119XdsClusterManagerLb12ClusterChildENS_11UnrefDeleteEE5UnrefEv.exit, !prof !52

5:                                                ; preds = %1
  tail call void @_ZN9grpc_core12_GLOBAL__N_119XdsClusterManagerLb12ClusterChildD2Ev(ptr noundef nonnull align 8 dereferenceable(112) %.0.val) #36
  tail call void @_ZdlPvm(ptr noundef nonnull align 8 dereferenceable(16) %.0.val, i64 noundef 112) #38
  br label %_ZN9grpc_core20InternallyRefCountedINS_12_GLOBAL__N_119XdsClusterManagerLb12ClusterChildENS_11UnrefDeleteEE5UnrefEv.exit

_ZN9grpc_core20InternallyRefCountedINS_12_GLOBAL__N_119XdsClusterManagerLb12ClusterChildENS_11UnrefDeleteEE5UnrefEv.exit: ; preds = %5, %1, %0
  ret void
}